; Function Attrs: mustprogress uwtable
define noundef zeroext i1 @_ZN32pxrInternal_v0_24__pxrReserved__10TfMakeDirsERKNSt7__cxx1112basic_stringIcSt11char_traitsIcESaIcEEEib(ptr noundef nonnull align 8 dereferenceable(32) %0, i32 noundef %1, i1 noundef zeroext %2) local_unnamed_addr #3 personality ptr @__gxx_personality_v0 {
  %4 = alloca %"class.std::__cxx11::basic_string", align 8
  %5 = tail call noundef zeroext i1 @_ZNKSt7__cxx1112basic_stringIcSt11char_traitsIcESaIcEE5emptyEv(ptr noundef nonnull align 8 dereferenceable(32) %0) #21
  br i1 %5, label %.thread, label %6

6:                                                ; preds = %3
  call void @_ZN32pxrInternal_v0_24__pxrReserved__10TfNormPathERKNSt7__cxx1112basic_stringIcSt11char_traitsIcESaIcEEEb(ptr dead_on_unwind nonnull writable sret(%"class.std::__cxx11::basic_string") align 8 %4, ptr noundef nonnull align 8 dereferenceable(32) %0, i1 noundef zeroext false)
  %7 = invoke fastcc noundef zeroext i1 @_ZN32pxrInternal_v0_24__pxrReserved__L14Tf_MakeDirsRecERKNSt7__cxx1112basic_stringIcSt11char_traitsIcESaIcEEEib(ptr noundef nonnull align 8 dereferenceable(32) %4, i32 noundef %1, i1 noundef zeroext %2)
          to label %8 unwind label %10

8:                                                ; preds = %6
  call void @_ZNSt7__cxx1112basic_stringIcSt11char_traitsIcESaIcEED1Ev(ptr noundef nonnull align 8 dereferenceable(32) %4) #21
  br label %.thread

.thread:                                          ; preds = %3, %8
  %9 = phi i1 [ %7, %8 ], [ false, %3 ]
  ret i1 %9

10:                                               ; preds = %6
  %11 = landingpad { ptr, i32 }
          cleanup
  call void @_ZNSt7__cxx1112basic_stringIcSt11char_traitsIcESaIcEED1Ev(ptr noundef nonnull align 8 dereferenceable(32) %4) #21
  resume { ptr, i32 } %11
}